target datalayout = "e-m:e-p270:32:32-p271:32:32-p272:64:64-i64:64-i128:128-f80:128-n8:16:32:64-S128"
target triple = "x86_64-pc-linux-gnu"

%struct.SDL_EVDEV_keyboard_state = type { i32, i8, i32, ptr, [9 x i8], i8, i32, ptr, i32, i8, i8, i8, i8, i8, [128 x i8], i32, ptr, ptr, ptr, ptr }

@k_pad.pad_chars = internal constant [22 x i8] c"0123456789+-*/\0D,.?()#\00", align 16

; Function Attrs: nounwind uwtable
define internal void @put_queue(ptr noundef %0, i32 noundef %1) #0 {
  %3 = alloca ptr, align 8
  %4 = alloca i32, align 4
  store ptr %0, ptr %3, align 8
  store i32 %1, ptr %4, align 4
  %5 = load ptr, ptr %3, align 8
  %6 = getelementptr inbounds nuw %struct.SDL_EVDEV_keyboard_state, ptr %5, i32 0, i32 15
  %7 = load i32, ptr %6, align 4
  %8 = zext i32 %7 to i64
  %9 = icmp ult i64 %8, 127
  br i1 %9, label %10, label %21

10:                                               ; preds = %2
  %11 = load i32, ptr %4, align 4
  %12 = trunc i32 %11 to i8
  %13 = load ptr, ptr %3, align 8
  %14 = getelementptr inbounds nuw %struct.SDL_EVDEV_keyboard_state, ptr %13, i32 0, i32 14
  %15 = load ptr, ptr %3, align 8
  %16 = getelementptr inbounds nuw %struct.SDL_EVDEV_keyboard_state, ptr %15, i32 0, i32 15
  %17 = load i32, ptr %16, align 4
  %18 = add i32 %17, 1
  store i32 %18, ptr %16, align 4
  %19 = zext i32 %17 to i64
  %20 = getelementptr inbounds nuw [128 x i8], ptr %14, i64 0, i64 %19
  store i8 %12, ptr %20, align 1
  br label %21

21:                                               ; preds = %10, %2
  ret void
}

; Function Attrs: nounwind uwtable
define internal zeroext i1 @vc_kbd_led(ptr noundef %0, i32 noundef %1) #0 {
  %3 = alloca ptr, align 8
  %4 = alloca i32, align 4
  store ptr %0, ptr %3, align 8
  store i32 %1, ptr %4, align 4
  %5 = load ptr, ptr %3, align 8
  %6 = getelementptr inbounds nuw %struct.SDL_EVDEV_keyboard_state, ptr %5, i32 0, i32 12
  %7 = load i8, ptr %6, align 1
  %8 = zext i8 %7 to i32
  %9 = load i32, ptr %4, align 4
  %10 = and i32 %8, %9
  %11 = icmp ne i32 %10, 0
  ret i1 %11
}

; Function Attrs: nounwind uwtable
define internal void @k_pad(ptr noundef %0, i8 noundef zeroext %1, i8 noundef signext %2) #0 {
  %4 = alloca ptr, align 8
  %5 = alloca i8, align 1
  %6 = alloca i8, align 1
  store ptr %0, ptr %4, align 8
  store i8 %1, ptr %5, align 1
  store i8 %2, ptr %6, align 1
  %7 = load i8, ptr %6, align 1
  %8 = icmp ne i8 %7, 0
  br i1 %8, label %9, label %10

9:                                                ; preds = %3
  br label %21

10:                                               ; preds = %3
  %11 = load ptr, ptr %4, align 8
  %12 = call zeroext i1 @vc_kbd_led(ptr noundef %11, i32 noundef 2)
  br i1 %12, label %14, label %13

13:                                               ; preds = %10
  br label %21

14:                                               ; preds = %10
  %15 = load ptr, ptr %4, align 8
  %16 = load i8, ptr %5, align 1
  %17 = zext i8 %16 to i64
  %18 = getelementptr inbounds nuw [22 x i8], ptr @k_pad.pad_chars, i64 0, i64 %17
  %19 = load i8, ptr %18, align 1
  %20 = sext i8 %19 to i32
  call void @put_queue(ptr noundef %15, i32 noundef %20)
  br label %21

21:                                               ; preds = %14, %13, %9
  ret void
}