; Function Attrs: mustprogress nofree norecurse nosync nounwind willreturn memory(argmem: readwrite) uwtable
define internal void @k_pad(ptr noundef captures(none) %0, i8 noundef zeroext %1, i8 noundef signext %2) #8 {
  %.not = icmp eq i8 %2, 0
  br i1 %.not, label %4, label %put_queue.exit

4:                                                ; preds = %3
  %5 = getelementptr i8, ptr %0, i64 55
  %.val = load i8, ptr %5, align 1
  %6 = and i8 %.val, 2
  %.not3 = icmp eq i8 %6, 0
  br i1 %.not3, label %put_queue.exit, label %7

7:                                                ; preds = %4
  %8 = getelementptr inbounds nuw i8, ptr %0, i64 188
  %9 = load i32, ptr %8, align 4
  %10 = icmp ult i32 %9, 127
  br i1 %10, label %11, label %put_queue.exit

11:                                               ; preds = %7
  %12 = zext i8 %1 to i64
  %13 = getelementptr inbounds nuw [22 x i8], ptr @k_pad.pad_chars, i64 0, i64 %12
  %14 = load i8, ptr %13, align 1
  %15 = zext nneg i32 %9 to i64
  %16 = getelementptr inbounds nuw i8, ptr %0, i64 57
  %17 = add nuw nsw i32 %9, 1
  store i32 %17, ptr %8, align 4
  %18 = getelementptr inbounds nuw [128 x i8], ptr %16, i64 0, i64 %15
  store i8 %14, ptr %18, align 1
  br label %put_queue.exit

put_queue.exit:                                   ; preds = %11, %7, %4, %3
  ret void
}